ARM GAS  /var/folders/kr/g9ry2bg56g773797gdtkvvkw0000gn/T//ccIlPyXT.s 			page 1


   1              		.cpu cortex-m0
   2              		.arch armv6s-m
   3              		.fpu softvfp
   4              		.eabi_attribute 20, 1
   5              		.eabi_attribute 21, 1
   6              		.eabi_attribute 23, 3
   7              		.eabi_attribute 24, 1
   8              		.eabi_attribute 25, 1
   9              		.eabi_attribute 26, 1
  10              		.eabi_attribute 30, 1
  11              		.eabi_attribute 34, 0
  12              		.eabi_attribute 18, 4
  13              		.file	"main.c"
  14              		.text
  15              	.Ltext0:
  16              		.cfi_sections	.debug_frame
  17              		.file 1 "Src/main.c"
  18              		.section	.text.init_leds,"ax",%progbits
  19              		.align	1
  20              		.global	init_leds
  21              		.syntax unified
  22              		.code	16
  23              		.thumb_func
  25              	init_leds:
  26              	.LFB40:
   1:Src/main.c    **** /**
   2:Src/main.c    ****   *
   3:Src/main.c    ****   *
   4:Src/main.c    ****   *
   5:Src/main.c    ****   ******************************************************************************
   6:Src/main.c    ****   * File Name          : main.c
   7:Src/main.c    ****   * Description        : Main program body
   8:Src/main.c    ****   ******************************************************************************
   9:Src/main.c    ****   ** This notice applies to any and all portions of this file
  10:Src/main.c    ****   * that are not between comment pairs USER CODE BEGIN and
  11:Src/main.c    ****   * USER CODE END. Other portions of this file, whether
  12:Src/main.c    ****   * inserted by the user or by software development tools
  13:Src/main.c    ****   * are owned by their respective copyright owners.
  14:Src/main.c    ****   *
  15:Src/main.c    ****   * COPYRIGHT(c) 2018 STMicroelectronics
  16:Src/main.c    ****   *
  17:Src/main.c    ****   * Redistribution and use in source and binary forms, with or without modification,
  18:Src/main.c    ****   * are permitted provided that the following conditions are met:
  19:Src/main.c    ****   *   1. Redistributions of source code must retain the above copyright notice,
  20:Src/main.c    ****   *      this list of conditions and the following disclaimer.
  21:Src/main.c    ****   *   2. Redistributions in binary form must reproduce the above copyright notice,
  22:Src/main.c    ****   *      this list of conditions and the following disclaimer in the documentation
  23:Src/main.c    ****   *      and/or other materials provided with the distribution.
  24:Src/main.c    ****   *   3. Neither the name of STMicroelectronics nor the names of its contributors
  25:Src/main.c    ****   *      may be used to endorse or promote products derived from this software
  26:Src/main.c    ****   *      without specific prior written permission.
  27:Src/main.c    ****   *
  28:Src/main.c    ****   * THIS SOFTWARE IS PROVIDED BY THE COPYRIGHT HOLDERS AND CONTRIBUTORS "AS IS"
  29:Src/main.c    ****   * AND ANY EXPRESS OR IMPLIED WARRANTIES, INCLUDING, BUT NOT LIMITED TO, THE
  30:Src/main.c    ****   * IMPLIED WARRANTIES OF MERCHANTABILITY AND FITNESS FOR A PARTICULAR PURPOSE ARE
  31:Src/main.c    ****   * DISCLAIMED. IN NO EVENT SHALL THE COPYRIGHT HOLDER OR CONTRIBUTORS BE LIABLE
  32:Src/main.c    ****   * FOR ANY DIRECT, INDIRECT, INCIDENTAL, SPECIAL, EXEMPLARY, OR CONSEQUENTIAL
ARM GAS  /var/folders/kr/g9ry2bg56g773797gdtkvvkw0000gn/T//ccIlPyXT.s 			page 2


  33:Src/main.c    ****   * DAMAGES (INCLUDING, BUT NOT LIMITED TO, PROCUREMENT OF SUBSTITUTE GOODS OR
  34:Src/main.c    ****   * SERVICES; LOSS OF USE, DATA, OR PROFITS; OR BUSINESS INTERRUPTION) HOWEVER
  35:Src/main.c    ****   * CAUSED AND ON ANY THEORY OF LIABILITY, WHETHER IN CONTRACT, STRICT LIABILITY,
  36:Src/main.c    ****   * OR TORT (INCLUDING NEGLIGENCE OR OTHERWISE) ARISING IN ANY WAY OUT OF THE USE
  37:Src/main.c    ****   * OF THIS SOFTWARE, EVEN IF ADVISED OF THE POSSIBILITY OF SUCH DAMAGE.
  38:Src/main.c    ****   *
  39:Src/main.c    ****   ******************************************************************************
  40:Src/main.c    ****   */
  41:Src/main.c    **** 
  42:Src/main.c    **** /* Includes ------------------------------------------------------------------*/
  43:Src/main.c    **** #include "main.h"
  44:Src/main.c    **** #include "stm32f0xx_hal.h"
  45:Src/main.c    **** void _Error_Handler(char * file, int line);
  46:Src/main.c    **** 
  47:Src/main.c    **** /* USER CODE BEGIN Includes */
  48:Src/main.c    **** 
  49:Src/main.c    **** /* USER CODE END Includes */
  50:Src/main.c    **** 
  51:Src/main.c    **** /* Private variables ---------------------------------------------------------*/
  52:Src/main.c    **** 
  53:Src/main.c    **** /* USER CODE BEGIN PV */
  54:Src/main.c    **** /* Private variables ---------------------------------------------------------*/
  55:Src/main.c    **** 
  56:Src/main.c    **** /* USER CODE END PV */
  57:Src/main.c    **** 
  58:Src/main.c    **** /* Private function prototypes -----------------------------------------------*/
  59:Src/main.c    **** void SystemClock_Config(void);
  60:Src/main.c    **** 
  61:Src/main.c    **** /* USER CODE BEGIN PFP */
  62:Src/main.c    **** /* Private function prototypes -----------------------------------------------*/
  63:Src/main.c    **** 
  64:Src/main.c    **** /* USER CODE END PFP */
  65:Src/main.c    **** 
  66:Src/main.c    **** /* USER CODE BEGIN 0 */
  67:Src/main.c    **** 
  68:Src/main.c    **** /* USER CODE END 0 */
  69:Src/main.c    **** 
  70:Src/main.c    **** 
  71:Src/main.c    **** //Initialize all four LEDs
  72:Src/main.c    **** void init_leds(void)
  73:Src/main.c    **** {
  27              		.loc 1 73 1 view -0
  28              		.cfi_startproc
  29              		@ args = 0, pretend = 0, frame = 0
  30              		@ frame_needed = 0, uses_anonymous_args = 0
  31              		@ link register save eliminated.
  74:Src/main.c    ****   //Initialize red LED, PC6
  75:Src/main.c    ****   GPIOC->MODER |= GPIO_MODER_MODER6_0; //General purpose output
  32              		.loc 1 75 3 view .LVU1
  33              		.loc 1 75 8 is_stmt 0 view .LVU2
  34 0000 2C4B     		ldr	r3, .L2
  35 0002 1968     		ldr	r1, [r3]
  36              		.loc 1 75 16 view .LVU3
  37 0004 8022     		movs	r2, #128
  38 0006 5201     		lsls	r2, r2, #5
  39 0008 0A43     		orrs	r2, r1
  40 000a 1A60     		str	r2, [r3]
ARM GAS  /var/folders/kr/g9ry2bg56g773797gdtkvvkw0000gn/T//ccIlPyXT.s 			page 3


  76:Src/main.c    ****   GPIOC->OTYPER &= ~GPIO_OTYPER_OT_6; // Push-pull
  41              		.loc 1 76 3 is_stmt 1 view .LVU4
  42              		.loc 1 76 8 is_stmt 0 view .LVU5
  43 000c 5A68     		ldr	r2, [r3, #4]
  44              		.loc 1 76 17 view .LVU6
  45 000e 4021     		movs	r1, #64
  46 0010 8A43     		bics	r2, r1
  47 0012 5A60     		str	r2, [r3, #4]
  77:Src/main.c    ****   GPIOC->OSPEEDR &= ~GPIO_OSPEEDR_OSPEEDR6_0; //Low speed
  48              		.loc 1 77 3 is_stmt 1 view .LVU7
  49              		.loc 1 77 8 is_stmt 0 view .LVU8
  50 0014 9A68     		ldr	r2, [r3, #8]
  51              		.loc 1 77 18 view .LVU9
  52 0016 2849     		ldr	r1, .L2+4
  53 0018 0A40     		ands	r2, r1
  54 001a 9A60     		str	r2, [r3, #8]
  78:Src/main.c    ****   GPIOC->PUPDR &= ~(GPIO_PUPDR_PUPDR6_0 | GPIO_PUPDR_PUPDR6_1); //No pull up or down
  55              		.loc 1 78 3 is_stmt 1 view .LVU10
  56              		.loc 1 78 8 is_stmt 0 view .LVU11
  57 001c DA68     		ldr	r2, [r3, #12]
  58              		.loc 1 78 16 view .LVU12
  59 001e 2749     		ldr	r1, .L2+8
  60 0020 0A40     		ands	r2, r1
  61 0022 DA60     		str	r2, [r3, #12]
  79:Src/main.c    **** 
  80:Src/main.c    ****   //Initialize blue LED, PC7
  81:Src/main.c    ****   GPIOC->MODER |= GPIO_MODER_MODER7_0; //General purpose output
  62              		.loc 1 81 3 is_stmt 1 view .LVU13
  63              		.loc 1 81 8 is_stmt 0 view .LVU14
  64 0024 1968     		ldr	r1, [r3]
  65              		.loc 1 81 16 view .LVU15
  66 0026 8022     		movs	r2, #128
  67 0028 D201     		lsls	r2, r2, #7
  68 002a 0A43     		orrs	r2, r1
  69 002c 1A60     		str	r2, [r3]
  82:Src/main.c    ****   GPIOC->OTYPER &= ~GPIO_OTYPER_OT_7; // Push-pull
  70              		.loc 1 82 3 is_stmt 1 view .LVU16
  71              		.loc 1 82 8 is_stmt 0 view .LVU17
  72 002e 5A68     		ldr	r2, [r3, #4]
  73              		.loc 1 82 17 view .LVU18
  74 0030 8021     		movs	r1, #128
  75 0032 8A43     		bics	r2, r1
  76 0034 5A60     		str	r2, [r3, #4]
  83:Src/main.c    ****   GPIOC->OSPEEDR &= ~GPIO_OSPEEDR_OSPEEDR7_0; //Low speed
  77              		.loc 1 83 3 is_stmt 1 view .LVU19
  78              		.loc 1 83 8 is_stmt 0 view .LVU20
  79 0036 9A68     		ldr	r2, [r3, #8]
  80              		.loc 1 83 18 view .LVU21
  81 0038 2149     		ldr	r1, .L2+12
  82 003a 0A40     		ands	r2, r1
  83 003c 9A60     		str	r2, [r3, #8]
  84:Src/main.c    ****   GPIOC->PUPDR &= ~(GPIO_PUPDR_PUPDR7_0 | GPIO_PUPDR_PUPDR7_1); //No pull up or down
  84              		.loc 1 84 3 is_stmt 1 view .LVU22
  85              		.loc 1 84 8 is_stmt 0 view .LVU23
  86 003e DA68     		ldr	r2, [r3, #12]
  87              		.loc 1 84 16 view .LVU24
  88 0040 2049     		ldr	r1, .L2+16
ARM GAS  /var/folders/kr/g9ry2bg56g773797gdtkvvkw0000gn/T//ccIlPyXT.s 			page 4


  89 0042 0A40     		ands	r2, r1
  90 0044 DA60     		str	r2, [r3, #12]
  85:Src/main.c    **** 
  86:Src/main.c    ****   //Initialize orange LED, PC8
  87:Src/main.c    ****   GPIOC->MODER |= GPIO_MODER_MODER8_0; //General purpose output
  91              		.loc 1 87 3 is_stmt 1 view .LVU25
  92              		.loc 1 87 8 is_stmt 0 view .LVU26
  93 0046 1968     		ldr	r1, [r3]
  94              		.loc 1 87 16 view .LVU27
  95 0048 8022     		movs	r2, #128
  96 004a 5202     		lsls	r2, r2, #9
  97 004c 0A43     		orrs	r2, r1
  98 004e 1A60     		str	r2, [r3]
  88:Src/main.c    ****   GPIOC->OTYPER &= ~GPIO_OTYPER_OT_8; // Push-pull
  99              		.loc 1 88 3 is_stmt 1 view .LVU28
 100              		.loc 1 88 8 is_stmt 0 view .LVU29
 101 0050 5A68     		ldr	r2, [r3, #4]
 102              		.loc 1 88 17 view .LVU30
 103 0052 1D49     		ldr	r1, .L2+20
 104 0054 0A40     		ands	r2, r1
 105 0056 5A60     		str	r2, [r3, #4]
  89:Src/main.c    ****   GPIOC->OSPEEDR &= ~GPIO_OSPEEDR_OSPEEDR8_0; //Low speed
 106              		.loc 1 89 3 is_stmt 1 view .LVU31
 107              		.loc 1 89 8 is_stmt 0 view .LVU32
 108 0058 9A68     		ldr	r2, [r3, #8]
 109              		.loc 1 89 18 view .LVU33
 110 005a 1C49     		ldr	r1, .L2+24
 111 005c 0A40     		ands	r2, r1
 112 005e 9A60     		str	r2, [r3, #8]
  90:Src/main.c    ****   GPIOC->PUPDR &= ~(GPIO_PUPDR_PUPDR8_0 | GPIO_PUPDR_PUPDR8_1); //No pull up or down
 113              		.loc 1 90 3 is_stmt 1 view .LVU34
 114              		.loc 1 90 8 is_stmt 0 view .LVU35
 115 0060 DA68     		ldr	r2, [r3, #12]
 116              		.loc 1 90 16 view .LVU36
 117 0062 1B49     		ldr	r1, .L2+28
 118 0064 0A40     		ands	r2, r1
 119 0066 DA60     		str	r2, [r3, #12]
  91:Src/main.c    **** 
  92:Src/main.c    ****   //Initialize green LED, PC9
  93:Src/main.c    ****   GPIOC->MODER |= GPIO_MODER_MODER9_0; //General purpose output
 120              		.loc 1 93 3 is_stmt 1 view .LVU37
 121              		.loc 1 93 8 is_stmt 0 view .LVU38
 122 0068 1968     		ldr	r1, [r3]
 123              		.loc 1 93 16 view .LVU39
 124 006a 8022     		movs	r2, #128
 125 006c D202     		lsls	r2, r2, #11
 126 006e 0A43     		orrs	r2, r1
 127 0070 1A60     		str	r2, [r3]
  94:Src/main.c    ****   GPIOC->OTYPER &= ~GPIO_OTYPER_OT_9; // Push-pull
 128              		.loc 1 94 3 is_stmt 1 view .LVU40
 129              		.loc 1 94 8 is_stmt 0 view .LVU41
 130 0072 5A68     		ldr	r2, [r3, #4]
 131              		.loc 1 94 17 view .LVU42
 132 0074 1749     		ldr	r1, .L2+32
 133 0076 0A40     		ands	r2, r1
 134 0078 5A60     		str	r2, [r3, #4]
  95:Src/main.c    ****   GPIOC->OSPEEDR &= ~GPIO_OSPEEDR_OSPEEDR9_0; //Low speed
ARM GAS  /var/folders/kr/g9ry2bg56g773797gdtkvvkw0000gn/T//ccIlPyXT.s 			page 5


 135              		.loc 1 95 3 is_stmt 1 view .LVU43
 136              		.loc 1 95 8 is_stmt 0 view .LVU44
 137 007a 9A68     		ldr	r2, [r3, #8]
 138              		.loc 1 95 18 view .LVU45
 139 007c 1649     		ldr	r1, .L2+36
 140 007e 0A40     		ands	r2, r1
 141 0080 9A60     		str	r2, [r3, #8]
  96:Src/main.c    ****   GPIOC->PUPDR &= ~(GPIO_PUPDR_PUPDR9_0 | GPIO_PUPDR_PUPDR9_1); //No pull up or down
 142              		.loc 1 96 3 is_stmt 1 view .LVU46
 143              		.loc 1 96 8 is_stmt 0 view .LVU47
 144 0082 DA68     		ldr	r2, [r3, #12]
 145              		.loc 1 96 16 view .LVU48
 146 0084 1549     		ldr	r1, .L2+40
 147 0086 0A40     		ands	r2, r1
 148 0088 DA60     		str	r2, [r3, #12]
  97:Src/main.c    **** 
  98:Src/main.c    ****   //Set all LEDs off
  99:Src/main.c    ****   GPIOC->BSRR |= GPIO_BSRR_BR_6;
 149              		.loc 1 99 3 is_stmt 1 view .LVU49
 150              		.loc 1 99 8 is_stmt 0 view .LVU50
 151 008a 9969     		ldr	r1, [r3, #24]
 152              		.loc 1 99 15 view .LVU51
 153 008c 8022     		movs	r2, #128
 154 008e D203     		lsls	r2, r2, #15
 155 0090 0A43     		orrs	r2, r1
 156 0092 9A61     		str	r2, [r3, #24]
 100:Src/main.c    ****   GPIOC->BSRR |= GPIO_BSRR_BR_7;
 157              		.loc 1 100 3 is_stmt 1 view .LVU52
 158              		.loc 1 100 8 is_stmt 0 view .LVU53
 159 0094 9969     		ldr	r1, [r3, #24]
 160              		.loc 1 100 15 view .LVU54
 161 0096 8022     		movs	r2, #128
 162 0098 1204     		lsls	r2, r2, #16
 163 009a 0A43     		orrs	r2, r1
 164 009c 9A61     		str	r2, [r3, #24]
 101:Src/main.c    ****   GPIOC->BSRR |= GPIO_BSRR_BR_8;
 165              		.loc 1 101 3 is_stmt 1 view .LVU55
 166              		.loc 1 101 8 is_stmt 0 view .LVU56
 167 009e 9969     		ldr	r1, [r3, #24]
 168              		.loc 1 101 15 view .LVU57
 169 00a0 8022     		movs	r2, #128
 170 00a2 5204     		lsls	r2, r2, #17
 171 00a4 0A43     		orrs	r2, r1
 172 00a6 9A61     		str	r2, [r3, #24]
 102:Src/main.c    ****   GPIOC->BSRR |= GPIO_BSRR_BR_9;
 173              		.loc 1 102 3 is_stmt 1 view .LVU58
 174              		.loc 1 102 8 is_stmt 0 view .LVU59
 175 00a8 9969     		ldr	r1, [r3, #24]
 176              		.loc 1 102 15 view .LVU60
 177 00aa 8022     		movs	r2, #128
 178 00ac 9204     		lsls	r2, r2, #18
 179 00ae 0A43     		orrs	r2, r1
 180 00b0 9A61     		str	r2, [r3, #24]
 103:Src/main.c    **** 
 104:Src/main.c    **** }
 181              		.loc 1 104 1 view .LVU61
 182              		@ sp needed
ARM GAS  /var/folders/kr/g9ry2bg56g773797gdtkvvkw0000gn/T//ccIlPyXT.s 			page 6


 183 00b2 7047     		bx	lr
 184              	.L3:
 185              		.align	2
 186              	.L2:
 187 00b4 00080048 		.word	1207961600
 188 00b8 FFEFFFFF 		.word	-4097
 189 00bc FFCFFFFF 		.word	-12289
 190 00c0 FFBFFFFF 		.word	-16385
 191 00c4 FF3FFFFF 		.word	-49153
 192 00c8 FFFEFFFF 		.word	-257
 193 00cc FFFFFEFF 		.word	-65537
 194 00d0 FFFFFCFF 		.word	-196609
 195 00d4 FFFDFFFF 		.word	-513
 196 00d8 FFFFFBFF 		.word	-262145
 197 00dc FFFFF3FF 		.word	-786433
 198              		.cfi_endproc
 199              	.LFE40:
 201              		.section	.text.transmit_char,"ax",%progbits
 202              		.align	1
 203              		.global	transmit_char
 204              		.syntax unified
 205              		.code	16
 206              		.thumb_func
 208              	transmit_char:
 209              	.LFB41:
 105:Src/main.c    **** 
 106:Src/main.c    **** //Transmits one character over UART
 107:Src/main.c    **** void transmit_char(char c)
 108:Src/main.c    **** {
 210              		.loc 1 108 1 is_stmt 1 view -0
 211              		.cfi_startproc
 212              		@ args = 0, pretend = 0, frame = 0
 213              		@ frame_needed = 0, uses_anonymous_args = 0
 214              		@ link register save eliminated.
 215              	.LVL0:
 216              	.L5:
 109:Src/main.c    ****   //Wait until USART transmit register is empty
 110:Src/main.c    ****   while (!(USART3->ISR & USART_ISR_TC)) {}
 217              		.loc 1 110 42 discriminator 1 view .LVU63
 218              		.loc 1 110 10 discriminator 1 view .LVU64
 219              		.loc 1 110 18 is_stmt 0 discriminator 1 view .LVU65
 220 0000 034B     		ldr	r3, .L7
 221 0002 DB69     		ldr	r3, [r3, #28]
 222              		.loc 1 110 10 discriminator 1 view .LVU66
 223 0004 5B06     		lsls	r3, r3, #25
 224 0006 FBD5     		bpl	.L5
 111:Src/main.c    ****   //Write character to transmit register
 112:Src/main.c    ****   USART3->TDR = c;
 225              		.loc 1 112 3 is_stmt 1 view .LVU67
 226              		.loc 1 112 15 is_stmt 0 view .LVU68
 227 0008 014B     		ldr	r3, .L7
 228 000a 1885     		strh	r0, [r3, #40]
 113:Src/main.c    **** }
 229              		.loc 1 113 1 view .LVU69
 230              		@ sp needed
 231 000c 7047     		bx	lr
 232              	.L8:
ARM GAS  /var/folders/kr/g9ry2bg56g773797gdtkvvkw0000gn/T//ccIlPyXT.s 			page 7


 233 000e C046     		.align	2
 234              	.L7:
 235 0010 00480040 		.word	1073760256
 236              		.cfi_endproc
 237              	.LFE41:
 239              		.section	.text.print_error,"ax",%progbits
 240              		.align	1
 241              		.global	print_error
 242              		.syntax unified
 243              		.code	16
 244              		.thumb_func
 246              	print_error:
 247              	.LFB42:
 114:Src/main.c    **** 
 115:Src/main.c    **** //Transmits error message over UART
 116:Src/main.c    **** void print_error(void)
 117:Src/main.c    **** {
 248              		.loc 1 117 1 is_stmt 1 view -0
 249              		.cfi_startproc
 250              		@ args = 0, pretend = 0, frame = 0
 251              		@ frame_needed = 0, uses_anonymous_args = 0
 252 0000 10B5     		push	{r4, lr}
 253              	.LCFI0:
 254              		.cfi_def_cfa_offset 8
 255              		.cfi_offset 4, -8
 256              		.cfi_offset 14, -4
 118:Src/main.c    ****   transmit_char('e');
 257              		.loc 1 118 3 view .LVU71
 258 0002 6520     		movs	r0, #101
 259 0004 FFF7FEFF 		bl	transmit_char
 260              	.LVL1:
 119:Src/main.c    ****   transmit_char('r');
 261              		.loc 1 119 3 view .LVU72
 262 0008 7220     		movs	r0, #114
 263 000a FFF7FEFF 		bl	transmit_char
 264              	.LVL2:
 120:Src/main.c    ****   transmit_char('r');
 265              		.loc 1 120 3 view .LVU73
 266 000e 7220     		movs	r0, #114
 267 0010 FFF7FEFF 		bl	transmit_char
 268              	.LVL3:
 121:Src/main.c    ****   transmit_char('o');
 269              		.loc 1 121 3 view .LVU74
 270 0014 6F20     		movs	r0, #111
 271 0016 FFF7FEFF 		bl	transmit_char
 272              	.LVL4:
 122:Src/main.c    ****   transmit_char('r');
 273              		.loc 1 122 3 view .LVU75
 274 001a 7220     		movs	r0, #114
 275 001c FFF7FEFF 		bl	transmit_char
 276              	.LVL5:
 123:Src/main.c    ****   transmit_char('\n');
 277              		.loc 1 123 3 view .LVU76
 278 0020 0A20     		movs	r0, #10
 279 0022 FFF7FEFF 		bl	transmit_char
 280              	.LVL6:
 124:Src/main.c    ****   transmit_char('\r');
ARM GAS  /var/folders/kr/g9ry2bg56g773797gdtkvvkw0000gn/T//ccIlPyXT.s 			page 8


 281              		.loc 1 124 3 view .LVU77
 282 0026 0D20     		movs	r0, #13
 283 0028 FFF7FEFF 		bl	transmit_char
 284              	.LVL7:
 125:Src/main.c    **** }
 285              		.loc 1 125 1 is_stmt 0 view .LVU78
 286              		@ sp needed
 287 002c 10BD     		pop	{r4, pc}
 288              		.cfi_endproc
 289              	.LFE42:
 291              		.section	.text._Error_Handler,"ax",%progbits
 292              		.align	1
 293              		.global	_Error_Handler
 294              		.syntax unified
 295              		.code	16
 296              		.thumb_func
 298              	_Error_Handler:
 299              	.LFB45:
 126:Src/main.c    **** 
 127:Src/main.c    **** int main(void) 
 128:Src/main.c    **** {
 129:Src/main.c    ****   HAL_Init(); // Reset of all peripherals, init the Flash and Systick
 130:Src/main.c    ****   SystemClock_Config(); //Configure the system clock
 131:Src/main.c    **** 
 132:Src/main.c    ****   //Enable clock to GPIOC for LEDS
 133:Src/main.c    ****   RCC->AHBENR |= RCC_AHBENR_GPIOCEN; 
 134:Src/main.c    ****   RCC->AHBENR |= RCC_AHBENR_GPIOBEN;
 135:Src/main.c    ****   //Initialize all LEDs
 136:Src/main.c    ****   init_leds(); 
 137:Src/main.c    **** 
 138:Src/main.c    ****   //Set pin PB10 for USART TX
 139:Src/main.c    ****   GPIOB->MODER |= GPIO_MODER_MODER10_1; //Alternate function
 140:Src/main.c    ****   GPIOB->OTYPER &= ~GPIO_OTYPER_OT_10; // Push-pull
 141:Src/main.c    ****   GPIOB->OSPEEDR &= ~GPIO_OSPEEDR_OSPEEDR10_0; //Low speed
 142:Src/main.c    ****   GPIOB->PUPDR |= GPIO_PUPDR_PUPDR10_0; //Pull up
 143:Src/main.c    ****   //Set pin PB11 for USART RX
 144:Src/main.c    ****   GPIOB->MODER |= GPIO_MODER_MODER11_1; //Alternate function
 145:Src/main.c    ****   GPIOB->OTYPER &= ~GPIO_OTYPER_OT_11; // Push-pull
 146:Src/main.c    ****   GPIOB->OSPEEDR &= ~GPIO_OSPEEDR_OSPEEDR11_0; //Low speed
 147:Src/main.c    ****   GPIOB->PUPDR |= GPIO_PUPDR_PUPDR11_0; //Pull up
 148:Src/main.c    ****   GPIOB->AFR[1] &= 0xFFFF44FF;
 149:Src/main.c    ****   GPIOB->AFR[1] |= 0x00004400;
 150:Src/main.c    **** 
 151:Src/main.c    ****   //Enable clock to USART3
 152:Src/main.c    ****   RCC->APB1ENR |= RCC_APB1ENR_USART3EN;
 153:Src/main.c    ****   //Set word length to 8 bits
 154:Src/main.c    ****   USART3->CR1 &= ~USART_CR1_M1;
 155:Src/main.c    ****   USART3->CR1 &= ~USART_CR1_M0;
 156:Src/main.c    ****   //Set baud rate to 115200 bits/sec
 157:Src/main.c    ****   USART3->BRR = 0x45;
 158:Src/main.c    ****   //Set stop bits to 1
 159:Src/main.c    ****   USART3->CR2 &= ~USART_CR2_STOP_0;
 160:Src/main.c    ****   USART3->CR2 &= ~USART_CR2_STOP_1;
 161:Src/main.c    ****   //Set no parity
 162:Src/main.c    ****   USART3->CR1 &= ~USART_CR1_PCE;
 163:Src/main.c    ****   //Enable transmitter and receiver
 164:Src/main.c    ****   USART3->CR1 |= USART_CR1_TE;
ARM GAS  /var/folders/kr/g9ry2bg56g773797gdtkvvkw0000gn/T//ccIlPyXT.s 			page 9


 165:Src/main.c    ****   USART3->CR1 |= USART_CR1_RE;
 166:Src/main.c    ****   //Enable USART peripheral
 167:Src/main.c    ****   USART3->CR1 |= USART_CR1_UE;
 168:Src/main.c    ****   
 169:Src/main.c    ****   volatile char led;
 170:Src/main.c    ****   volatile uint8_t action;
 171:Src/main.c    **** 
 172:Src/main.c    ****   //Main loop
 173:Src/main.c    ****   while (1) 
 174:Src/main.c    ****   { 
 175:Src/main.c    ****     if (USART3->ISR & USART_ISR_RXNE)
 176:Src/main.c    ****     {
 177:Src/main.c    ****       led = USART3->RDR;
 178:Src/main.c    ****       switch (led)
 179:Src/main.c    ****       {
 180:Src/main.c    ****         case 'r':
 181:Src/main.c    ****           GPIOC->ODR ^= GPIO_ODR_6;
 182:Src/main.c    ****           break;
 183:Src/main.c    ****         case 'g':
 184:Src/main.c    ****           GPIOC->ODR ^= GPIO_ODR_9;
 185:Src/main.c    ****           break;
 186:Src/main.c    ****         case 'b':
 187:Src/main.c    ****           GPIOC->ODR ^= GPIO_ODR_7;
 188:Src/main.c    ****           break;
 189:Src/main.c    ****         case 'o':
 190:Src/main.c    ****           GPIOC->ODR ^= GPIO_ODR_8;
 191:Src/main.c    ****           break;
 192:Src/main.c    ****         case 0:
 193:Src/main.c    ****           break;
 194:Src/main.c    ****         default:
 195:Src/main.c    ****           print_error();
 196:Src/main.c    ****       }
 197:Src/main.c    ****     }
 198:Src/main.c    ****   }
 199:Src/main.c    **** } 
 200:Src/main.c    **** 
 201:Src/main.c    **** /** System Clock Configuration
 202:Src/main.c    **** */
 203:Src/main.c    **** void SystemClock_Config(void)
 204:Src/main.c    **** {
 205:Src/main.c    **** 
 206:Src/main.c    ****   RCC_OscInitTypeDef RCC_OscInitStruct;
 207:Src/main.c    ****   RCC_ClkInitTypeDef RCC_ClkInitStruct;
 208:Src/main.c    **** 
 209:Src/main.c    ****     /**Initializes the CPU, AHB and APB busses clocks
 210:Src/main.c    ****     */
 211:Src/main.c    ****   RCC_OscInitStruct.OscillatorType = RCC_OSCILLATORTYPE_HSI;
 212:Src/main.c    ****   RCC_OscInitStruct.HSIState = RCC_HSI_ON;
 213:Src/main.c    ****   RCC_OscInitStruct.HSICalibrationValue = 16;
 214:Src/main.c    ****   RCC_OscInitStruct.PLL.PLLState = RCC_PLL_NONE;
 215:Src/main.c    ****   if (HAL_RCC_OscConfig(&RCC_OscInitStruct) != HAL_OK)
 216:Src/main.c    ****   {
 217:Src/main.c    ****     _Error_Handler(__FILE__, __LINE__);
 218:Src/main.c    ****   }
 219:Src/main.c    **** 
 220:Src/main.c    ****     /**Initializes the CPU, AHB and APB busses clocks
 221:Src/main.c    ****     */
ARM GAS  /var/folders/kr/g9ry2bg56g773797gdtkvvkw0000gn/T//ccIlPyXT.s 			page 10


 222:Src/main.c    ****   RCC_ClkInitStruct.ClockType = RCC_CLOCKTYPE_HCLK|RCC_CLOCKTYPE_SYSCLK
 223:Src/main.c    ****                               |RCC_CLOCKTYPE_PCLK1;
 224:Src/main.c    ****   RCC_ClkInitStruct.SYSCLKSource = RCC_SYSCLKSOURCE_HSI;
 225:Src/main.c    ****   RCC_ClkInitStruct.AHBCLKDivider = RCC_SYSCLK_DIV1;
 226:Src/main.c    ****   RCC_ClkInitStruct.APB1CLKDivider = RCC_HCLK_DIV1;
 227:Src/main.c    **** 
 228:Src/main.c    ****   if (HAL_RCC_ClockConfig(&RCC_ClkInitStruct, FLASH_LATENCY_0) != HAL_OK)
 229:Src/main.c    ****   {
 230:Src/main.c    ****     _Error_Handler(__FILE__, __LINE__);
 231:Src/main.c    ****   }
 232:Src/main.c    **** 
 233:Src/main.c    ****     /**Configure the Systick interrupt time
 234:Src/main.c    ****     */
 235:Src/main.c    ****   HAL_SYSTICK_Config(HAL_RCC_GetHCLKFreq()/1000);
 236:Src/main.c    **** 
 237:Src/main.c    ****     /**Configure the Systick
 238:Src/main.c    ****     */
 239:Src/main.c    ****   HAL_SYSTICK_CLKSourceConfig(SYSTICK_CLKSOURCE_HCLK);
 240:Src/main.c    **** 
 241:Src/main.c    ****   /* SysTick_IRQn interrupt configuration */
 242:Src/main.c    ****   HAL_NVIC_SetPriority(SysTick_IRQn, 0, 0);
 243:Src/main.c    **** }
 244:Src/main.c    **** 
 245:Src/main.c    **** /* USER CODE BEGIN 4 */
 246:Src/main.c    **** 
 247:Src/main.c    **** /* USER CODE END 4 */
 248:Src/main.c    **** 
 249:Src/main.c    **** /**
 250:Src/main.c    ****   * @brief  This function is executed in case of error occurrence.
 251:Src/main.c    ****   * @param  None
 252:Src/main.c    ****   * @retval None
 253:Src/main.c    ****   */
 254:Src/main.c    **** void _Error_Handler(char * file, int line)
 255:Src/main.c    **** {
 300              		.loc 1 255 1 is_stmt 1 view -0
 301              		.cfi_startproc
 302              		@ Volatile: function does not return.
 303              		@ args = 0, pretend = 0, frame = 0
 304              		@ frame_needed = 0, uses_anonymous_args = 0
 305              		@ link register save eliminated.
 306              	.LVL8:
 307              	.L11:
 256:Src/main.c    ****   /* USER CODE BEGIN Error_Handler_Debug */
 257:Src/main.c    ****   /* User can add his own implementation to report the HAL error return state */
 258:Src/main.c    ****   while(1)
 308              		.loc 1 258 3 view .LVU80
 259:Src/main.c    ****   {
 260:Src/main.c    ****   }
 309              		.loc 1 260 3 view .LVU81
 258:Src/main.c    ****   {
 310              		.loc 1 258 8 view .LVU82
 311 0000 FEE7     		b	.L11
 312              		.cfi_endproc
 313              	.LFE45:
 315              		.section	.rodata.SystemClock_Config.str1.4,"aMS",%progbits,1
 316              		.align	2
 317              	.LC0:
ARM GAS  /var/folders/kr/g9ry2bg56g773797gdtkvvkw0000gn/T//ccIlPyXT.s 			page 11


 318 0000 5372632F 		.ascii	"Src/main.c\000"
 318      6D61696E 
 318      2E6300
 319              		.global	__aeabi_uidiv
 320              		.section	.text.SystemClock_Config,"ax",%progbits
 321              		.align	1
 322              		.global	SystemClock_Config
 323              		.syntax unified
 324              		.code	16
 325              		.thumb_func
 327              	SystemClock_Config:
 328              	.LFB44:
 204:Src/main.c    **** 
 329              		.loc 1 204 1 view -0
 330              		.cfi_startproc
 331              		@ args = 0, pretend = 0, frame = 72
 332              		@ frame_needed = 0, uses_anonymous_args = 0
 333 0000 00B5     		push	{lr}
 334              	.LCFI1:
 335              		.cfi_def_cfa_offset 4
 336              		.cfi_offset 14, -4
 337 0002 93B0     		sub	sp, sp, #76
 338              	.LCFI2:
 339              		.cfi_def_cfa_offset 80
 206:Src/main.c    ****   RCC_ClkInitTypeDef RCC_ClkInitStruct;
 340              		.loc 1 206 3 view .LVU84
 207:Src/main.c    **** 
 341              		.loc 1 207 3 view .LVU85
 211:Src/main.c    ****   RCC_OscInitStruct.HSIState = RCC_HSI_ON;
 342              		.loc 1 211 3 view .LVU86
 211:Src/main.c    ****   RCC_OscInitStruct.HSIState = RCC_HSI_ON;
 343              		.loc 1 211 36 is_stmt 0 view .LVU87
 344 0004 0223     		movs	r3, #2
 345 0006 0593     		str	r3, [sp, #20]
 212:Src/main.c    ****   RCC_OscInitStruct.HSICalibrationValue = 16;
 346              		.loc 1 212 3 is_stmt 1 view .LVU88
 212:Src/main.c    ****   RCC_OscInitStruct.HSICalibrationValue = 16;
 347              		.loc 1 212 30 is_stmt 0 view .LVU89
 348 0008 013B     		subs	r3, r3, #1
 349 000a 0893     		str	r3, [sp, #32]
 213:Src/main.c    ****   RCC_OscInitStruct.PLL.PLLState = RCC_PLL_NONE;
 350              		.loc 1 213 3 is_stmt 1 view .LVU90
 213:Src/main.c    ****   RCC_OscInitStruct.PLL.PLLState = RCC_PLL_NONE;
 351              		.loc 1 213 41 is_stmt 0 view .LVU91
 352 000c 0F33     		adds	r3, r3, #15
 353 000e 0993     		str	r3, [sp, #36]
 214:Src/main.c    ****   if (HAL_RCC_OscConfig(&RCC_OscInitStruct) != HAL_OK)
 354              		.loc 1 214 3 is_stmt 1 view .LVU92
 214:Src/main.c    ****   if (HAL_RCC_OscConfig(&RCC_OscInitStruct) != HAL_OK)
 355              		.loc 1 214 34 is_stmt 0 view .LVU93
 356 0010 0023     		movs	r3, #0
 357 0012 0E93     		str	r3, [sp, #56]
 215:Src/main.c    ****   {
 358              		.loc 1 215 3 is_stmt 1 view .LVU94
 215:Src/main.c    ****   {
 359              		.loc 1 215 7 is_stmt 0 view .LVU95
 360 0014 05A8     		add	r0, sp, #20
ARM GAS  /var/folders/kr/g9ry2bg56g773797gdtkvvkw0000gn/T//ccIlPyXT.s 			page 12


 361 0016 FFF7FEFF 		bl	HAL_RCC_OscConfig
 362              	.LVL9:
 215:Src/main.c    ****   {
 363              		.loc 1 215 6 discriminator 1 view .LVU96
 364 001a 0028     		cmp	r0, #0
 365 001c 1ED1     		bne	.L15
 222:Src/main.c    ****                               |RCC_CLOCKTYPE_PCLK1;
 366              		.loc 1 222 3 is_stmt 1 view .LVU97
 222:Src/main.c    ****                               |RCC_CLOCKTYPE_PCLK1;
 367              		.loc 1 222 31 is_stmt 0 view .LVU98
 368 001e 0723     		movs	r3, #7
 369 0020 0193     		str	r3, [sp, #4]
 224:Src/main.c    ****   RCC_ClkInitStruct.AHBCLKDivider = RCC_SYSCLK_DIV1;
 370              		.loc 1 224 3 is_stmt 1 view .LVU99
 224:Src/main.c    ****   RCC_ClkInitStruct.AHBCLKDivider = RCC_SYSCLK_DIV1;
 371              		.loc 1 224 34 is_stmt 0 view .LVU100
 372 0022 0023     		movs	r3, #0
 373 0024 0293     		str	r3, [sp, #8]
 225:Src/main.c    ****   RCC_ClkInitStruct.APB1CLKDivider = RCC_HCLK_DIV1;
 374              		.loc 1 225 3 is_stmt 1 view .LVU101
 225:Src/main.c    ****   RCC_ClkInitStruct.APB1CLKDivider = RCC_HCLK_DIV1;
 375              		.loc 1 225 35 is_stmt 0 view .LVU102
 376 0026 0393     		str	r3, [sp, #12]
 226:Src/main.c    **** 
 377              		.loc 1 226 3 is_stmt 1 view .LVU103
 226:Src/main.c    **** 
 378              		.loc 1 226 36 is_stmt 0 view .LVU104
 379 0028 0493     		str	r3, [sp, #16]
 228:Src/main.c    ****   {
 380              		.loc 1 228 3 is_stmt 1 view .LVU105
 228:Src/main.c    ****   {
 381              		.loc 1 228 7 is_stmt 0 view .LVU106
 382 002a 0021     		movs	r1, #0
 383 002c 01A8     		add	r0, sp, #4
 384 002e FFF7FEFF 		bl	HAL_RCC_ClockConfig
 385              	.LVL10:
 228:Src/main.c    ****   {
 386              		.loc 1 228 6 discriminator 1 view .LVU107
 387 0032 0028     		cmp	r0, #0
 388 0034 16D1     		bne	.L16
 235:Src/main.c    **** 
 389              		.loc 1 235 3 is_stmt 1 view .LVU108
 235:Src/main.c    **** 
 390              		.loc 1 235 22 is_stmt 0 view .LVU109
 391 0036 FFF7FEFF 		bl	HAL_RCC_GetHCLKFreq
 392              	.LVL11:
 235:Src/main.c    **** 
 393              		.loc 1 235 3 discriminator 1 view .LVU110
 394 003a FA21     		movs	r1, #250
 395 003c 8900     		lsls	r1, r1, #2
 396 003e FFF7FEFF 		bl	__aeabi_uidiv
 397              	.LVL12:
 398 0042 FFF7FEFF 		bl	HAL_SYSTICK_Config
 399              	.LVL13:
 239:Src/main.c    **** 
 400              		.loc 1 239 3 is_stmt 1 view .LVU111
 401 0046 0420     		movs	r0, #4
ARM GAS  /var/folders/kr/g9ry2bg56g773797gdtkvvkw0000gn/T//ccIlPyXT.s 			page 13


 402 0048 FFF7FEFF 		bl	HAL_SYSTICK_CLKSourceConfig
 403              	.LVL14:
 242:Src/main.c    **** }
 404              		.loc 1 242 3 view .LVU112
 405 004c 0120     		movs	r0, #1
 406 004e 0022     		movs	r2, #0
 407 0050 0021     		movs	r1, #0
 408 0052 4042     		rsbs	r0, r0, #0
 409 0054 FFF7FEFF 		bl	HAL_NVIC_SetPriority
 410              	.LVL15:
 243:Src/main.c    **** 
 411              		.loc 1 243 1 is_stmt 0 view .LVU113
 412 0058 13B0     		add	sp, sp, #76
 413              		@ sp needed
 414 005a 00BD     		pop	{pc}
 415              	.L15:
 217:Src/main.c    ****   }
 416              		.loc 1 217 5 is_stmt 1 view .LVU114
 417 005c 0348     		ldr	r0, .L17
 418 005e D921     		movs	r1, #217
 419 0060 FFF7FEFF 		bl	_Error_Handler
 420              	.LVL16:
 421              	.L16:
 230:Src/main.c    ****   }
 422              		.loc 1 230 5 view .LVU115
 423 0064 0148     		ldr	r0, .L17
 424 0066 E621     		movs	r1, #230
 425 0068 FFF7FEFF 		bl	_Error_Handler
 426              	.LVL17:
 427              	.L18:
 428              		.align	2
 429              	.L17:
 430 006c 00000000 		.word	.LC0
 431              		.cfi_endproc
 432              	.LFE44:
 434              		.section	.text.main,"ax",%progbits
 435              		.align	1
 436              		.global	main
 437              		.syntax unified
 438              		.code	16
 439              		.thumb_func
 441              	main:
 442              	.LFB43:
 128:Src/main.c    ****   HAL_Init(); // Reset of all peripherals, init the Flash and Systick
 443              		.loc 1 128 1 view -0
 444              		.cfi_startproc
 445              		@ Volatile: function does not return.
 446              		@ args = 0, pretend = 0, frame = 8
 447              		@ frame_needed = 0, uses_anonymous_args = 0
 448 0000 30B5     		push	{r4, r5, lr}
 449              	.LCFI3:
 450              		.cfi_def_cfa_offset 12
 451              		.cfi_offset 4, -12
 452              		.cfi_offset 5, -8
 453              		.cfi_offset 14, -4
 454 0002 83B0     		sub	sp, sp, #12
 455              	.LCFI4:
ARM GAS  /var/folders/kr/g9ry2bg56g773797gdtkvvkw0000gn/T//ccIlPyXT.s 			page 14


 456              		.cfi_def_cfa_offset 24
 129:Src/main.c    ****   SystemClock_Config(); //Configure the system clock
 457              		.loc 1 129 3 view .LVU117
 458 0004 FFF7FEFF 		bl	HAL_Init
 459              	.LVL18:
 130:Src/main.c    **** 
 460              		.loc 1 130 3 view .LVU118
 461 0008 FFF7FEFF 		bl	SystemClock_Config
 462              	.LVL19:
 133:Src/main.c    ****   RCC->AHBENR |= RCC_AHBENR_GPIOBEN;
 463              		.loc 1 133 3 view .LVU119
 133:Src/main.c    ****   RCC->AHBENR |= RCC_AHBENR_GPIOBEN;
 464              		.loc 1 133 6 is_stmt 0 view .LVU120
 465 000c 494C     		ldr	r4, .L31
 466 000e 6269     		ldr	r2, [r4, #20]
 133:Src/main.c    ****   RCC->AHBENR |= RCC_AHBENR_GPIOBEN;
 467              		.loc 1 133 15 view .LVU121
 468 0010 8023     		movs	r3, #128
 469 0012 1B03     		lsls	r3, r3, #12
 470 0014 1343     		orrs	r3, r2
 471 0016 6361     		str	r3, [r4, #20]
 134:Src/main.c    ****   //Initialize all LEDs
 472              		.loc 1 134 3 is_stmt 1 view .LVU122
 134:Src/main.c    ****   //Initialize all LEDs
 473              		.loc 1 134 6 is_stmt 0 view .LVU123
 474 0018 6369     		ldr	r3, [r4, #20]
 134:Src/main.c    ****   //Initialize all LEDs
 475              		.loc 1 134 15 view .LVU124
 476 001a 8025     		movs	r5, #128
 477 001c ED02     		lsls	r5, r5, #11
 478 001e 2B43     		orrs	r3, r5
 479 0020 6361     		str	r3, [r4, #20]
 136:Src/main.c    **** 
 480              		.loc 1 136 3 is_stmt 1 view .LVU125
 481 0022 FFF7FEFF 		bl	init_leds
 482              	.LVL20:
 139:Src/main.c    ****   GPIOB->OTYPER &= ~GPIO_OTYPER_OT_10; // Push-pull
 483              		.loc 1 139 3 view .LVU126
 139:Src/main.c    ****   GPIOB->OTYPER &= ~GPIO_OTYPER_OT_10; // Push-pull
 484              		.loc 1 139 8 is_stmt 0 view .LVU127
 485 0026 444B     		ldr	r3, .L31+4
 486 0028 1968     		ldr	r1, [r3]
 139:Src/main.c    ****   GPIOB->OTYPER &= ~GPIO_OTYPER_OT_10; // Push-pull
 487              		.loc 1 139 16 view .LVU128
 488 002a 8022     		movs	r2, #128
 489 002c 9203     		lsls	r2, r2, #14
 490 002e 0A43     		orrs	r2, r1
 491 0030 1A60     		str	r2, [r3]
 140:Src/main.c    ****   GPIOB->OSPEEDR &= ~GPIO_OSPEEDR_OSPEEDR10_0; //Low speed
 492              		.loc 1 140 3 is_stmt 1 view .LVU129
 140:Src/main.c    ****   GPIOB->OSPEEDR &= ~GPIO_OSPEEDR_OSPEEDR10_0; //Low speed
 493              		.loc 1 140 8 is_stmt 0 view .LVU130
 494 0032 5A68     		ldr	r2, [r3, #4]
 140:Src/main.c    ****   GPIOB->OSPEEDR &= ~GPIO_OSPEEDR_OSPEEDR10_0; //Low speed
 495              		.loc 1 140 17 view .LVU131
 496 0034 4149     		ldr	r1, .L31+8
 497 0036 0A40     		ands	r2, r1
ARM GAS  /var/folders/kr/g9ry2bg56g773797gdtkvvkw0000gn/T//ccIlPyXT.s 			page 15


 498 0038 5A60     		str	r2, [r3, #4]
 141:Src/main.c    ****   GPIOB->PUPDR |= GPIO_PUPDR_PUPDR10_0; //Pull up
 499              		.loc 1 141 3 is_stmt 1 view .LVU132
 141:Src/main.c    ****   GPIOB->PUPDR |= GPIO_PUPDR_PUPDR10_0; //Pull up
 500              		.loc 1 141 8 is_stmt 0 view .LVU133
 501 003a 9A68     		ldr	r2, [r3, #8]
 141:Src/main.c    ****   GPIOB->PUPDR |= GPIO_PUPDR_PUPDR10_0; //Pull up
 502              		.loc 1 141 18 view .LVU134
 503 003c 4048     		ldr	r0, .L31+12
 504 003e 0240     		ands	r2, r0
 505 0040 9A60     		str	r2, [r3, #8]
 142:Src/main.c    ****   //Set pin PB11 for USART RX
 506              		.loc 1 142 3 is_stmt 1 view .LVU135
 142:Src/main.c    ****   //Set pin PB11 for USART RX
 507              		.loc 1 142 8 is_stmt 0 view .LVU136
 508 0042 D868     		ldr	r0, [r3, #12]
 142:Src/main.c    ****   //Set pin PB11 for USART RX
 509              		.loc 1 142 16 view .LVU137
 510 0044 8022     		movs	r2, #128
 511 0046 5203     		lsls	r2, r2, #13
 512 0048 0243     		orrs	r2, r0
 513 004a DA60     		str	r2, [r3, #12]
 144:Src/main.c    ****   GPIOB->OTYPER &= ~GPIO_OTYPER_OT_11; // Push-pull
 514              		.loc 1 144 3 is_stmt 1 view .LVU138
 144:Src/main.c    ****   GPIOB->OTYPER &= ~GPIO_OTYPER_OT_11; // Push-pull
 515              		.loc 1 144 8 is_stmt 0 view .LVU139
 516 004c 1868     		ldr	r0, [r3]
 144:Src/main.c    ****   GPIOB->OTYPER &= ~GPIO_OTYPER_OT_11; // Push-pull
 517              		.loc 1 144 16 view .LVU140
 518 004e 8022     		movs	r2, #128
 519 0050 1204     		lsls	r2, r2, #16
 520 0052 0243     		orrs	r2, r0
 521 0054 1A60     		str	r2, [r3]
 145:Src/main.c    ****   GPIOB->OSPEEDR &= ~GPIO_OSPEEDR_OSPEEDR11_0; //Low speed
 522              		.loc 1 145 3 is_stmt 1 view .LVU141
 145:Src/main.c    ****   GPIOB->OSPEEDR &= ~GPIO_OSPEEDR_OSPEEDR11_0; //Low speed
 523              		.loc 1 145 8 is_stmt 0 view .LVU142
 524 0056 5A68     		ldr	r2, [r3, #4]
 145:Src/main.c    ****   GPIOB->OSPEEDR &= ~GPIO_OSPEEDR_OSPEEDR11_0; //Low speed
 525              		.loc 1 145 17 view .LVU143
 526 0058 3A48     		ldr	r0, .L31+16
 527 005a 0240     		ands	r2, r0
 528 005c 5A60     		str	r2, [r3, #4]
 146:Src/main.c    ****   GPIOB->PUPDR |= GPIO_PUPDR_PUPDR11_0; //Pull up
 529              		.loc 1 146 3 is_stmt 1 view .LVU144
 146:Src/main.c    ****   GPIOB->PUPDR |= GPIO_PUPDR_PUPDR11_0; //Pull up
 530              		.loc 1 146 8 is_stmt 0 view .LVU145
 531 005e 9A68     		ldr	r2, [r3, #8]
 146:Src/main.c    ****   GPIOB->PUPDR |= GPIO_PUPDR_PUPDR11_0; //Pull up
 532              		.loc 1 146 18 view .LVU146
 533 0060 3948     		ldr	r0, .L31+20
 534 0062 0240     		ands	r2, r0
 535 0064 9A60     		str	r2, [r3, #8]
 147:Src/main.c    ****   GPIOB->AFR[1] &= 0xFFFF44FF;
 536              		.loc 1 147 3 is_stmt 1 view .LVU147
 147:Src/main.c    ****   GPIOB->AFR[1] &= 0xFFFF44FF;
 537              		.loc 1 147 8 is_stmt 0 view .LVU148
ARM GAS  /var/folders/kr/g9ry2bg56g773797gdtkvvkw0000gn/T//ccIlPyXT.s 			page 16


 538 0066 D868     		ldr	r0, [r3, #12]
 147:Src/main.c    ****   GPIOB->AFR[1] &= 0xFFFF44FF;
 539              		.loc 1 147 16 view .LVU149
 540 0068 8022     		movs	r2, #128
 541 006a D203     		lsls	r2, r2, #15
 542 006c 0243     		orrs	r2, r0
 543 006e DA60     		str	r2, [r3, #12]
 148:Src/main.c    ****   GPIOB->AFR[1] |= 0x00004400;
 544              		.loc 1 148 3 is_stmt 1 view .LVU150
 148:Src/main.c    ****   GPIOB->AFR[1] |= 0x00004400;
 545              		.loc 1 148 13 is_stmt 0 view .LVU151
 546 0070 5A6A     		ldr	r2, [r3, #36]
 148:Src/main.c    ****   GPIOB->AFR[1] |= 0x00004400;
 547              		.loc 1 148 17 view .LVU152
 548 0072 3648     		ldr	r0, .L31+24
 549 0074 0240     		ands	r2, r0
 550 0076 5A62     		str	r2, [r3, #36]
 149:Src/main.c    **** 
 551              		.loc 1 149 3 is_stmt 1 view .LVU153
 149:Src/main.c    **** 
 552              		.loc 1 149 13 is_stmt 0 view .LVU154
 553 0078 586A     		ldr	r0, [r3, #36]
 149:Src/main.c    **** 
 554              		.loc 1 149 17 view .LVU155
 555 007a 8822     		movs	r2, #136
 556 007c D201     		lsls	r2, r2, #7
 557 007e 0243     		orrs	r2, r0
 558 0080 5A62     		str	r2, [r3, #36]
 152:Src/main.c    ****   //Set word length to 8 bits
 559              		.loc 1 152 3 is_stmt 1 view .LVU156
 152:Src/main.c    ****   //Set word length to 8 bits
 560              		.loc 1 152 6 is_stmt 0 view .LVU157
 561 0082 E369     		ldr	r3, [r4, #28]
 152:Src/main.c    ****   //Set word length to 8 bits
 562              		.loc 1 152 16 view .LVU158
 563 0084 1D43     		orrs	r5, r3
 564 0086 E561     		str	r5, [r4, #28]
 154:Src/main.c    ****   USART3->CR1 &= ~USART_CR1_M0;
 565              		.loc 1 154 3 is_stmt 1 view .LVU159
 154:Src/main.c    ****   USART3->CR1 &= ~USART_CR1_M0;
 566              		.loc 1 154 9 is_stmt 0 view .LVU160
 567 0088 314B     		ldr	r3, .L31+28
 568 008a 1A68     		ldr	r2, [r3]
 154:Src/main.c    ****   USART3->CR1 &= ~USART_CR1_M0;
 569              		.loc 1 154 15 view .LVU161
 570 008c 3148     		ldr	r0, .L31+32
 571 008e 0240     		ands	r2, r0
 572 0090 1A60     		str	r2, [r3]
 155:Src/main.c    ****   //Set baud rate to 115200 bits/sec
 573              		.loc 1 155 3 is_stmt 1 view .LVU162
 155:Src/main.c    ****   //Set baud rate to 115200 bits/sec
 574              		.loc 1 155 9 is_stmt 0 view .LVU163
 575 0092 1A68     		ldr	r2, [r3]
 155:Src/main.c    ****   //Set baud rate to 115200 bits/sec
 576              		.loc 1 155 15 view .LVU164
 577 0094 3048     		ldr	r0, .L31+36
 578 0096 0240     		ands	r2, r0
ARM GAS  /var/folders/kr/g9ry2bg56g773797gdtkvvkw0000gn/T//ccIlPyXT.s 			page 17


 579 0098 1A60     		str	r2, [r3]
 157:Src/main.c    ****   //Set stop bits to 1
 580              		.loc 1 157 3 is_stmt 1 view .LVU165
 157:Src/main.c    ****   //Set stop bits to 1
 581              		.loc 1 157 15 is_stmt 0 view .LVU166
 582 009a 4522     		movs	r2, #69
 583 009c DA60     		str	r2, [r3, #12]
 159:Src/main.c    ****   USART3->CR2 &= ~USART_CR2_STOP_1;
 584              		.loc 1 159 3 is_stmt 1 view .LVU167
 159:Src/main.c    ****   USART3->CR2 &= ~USART_CR2_STOP_1;
 585              		.loc 1 159 9 is_stmt 0 view .LVU168
 586 009e 5A68     		ldr	r2, [r3, #4]
 159:Src/main.c    ****   USART3->CR2 &= ~USART_CR2_STOP_1;
 587              		.loc 1 159 15 view .LVU169
 588 00a0 0240     		ands	r2, r0
 589 00a2 5A60     		str	r2, [r3, #4]
 160:Src/main.c    ****   //Set no parity
 590              		.loc 1 160 3 is_stmt 1 view .LVU170
 160:Src/main.c    ****   //Set no parity
 591              		.loc 1 160 9 is_stmt 0 view .LVU171
 592 00a4 5A68     		ldr	r2, [r3, #4]
 160:Src/main.c    ****   //Set no parity
 593              		.loc 1 160 15 view .LVU172
 594 00a6 2D48     		ldr	r0, .L31+40
 595 00a8 0240     		ands	r2, r0
 596 00aa 5A60     		str	r2, [r3, #4]
 162:Src/main.c    ****   //Enable transmitter and receiver
 597              		.loc 1 162 3 is_stmt 1 view .LVU173
 162:Src/main.c    ****   //Enable transmitter and receiver
 598              		.loc 1 162 9 is_stmt 0 view .LVU174
 599 00ac 1A68     		ldr	r2, [r3]
 162:Src/main.c    ****   //Enable transmitter and receiver
 600              		.loc 1 162 15 view .LVU175
 601 00ae 0A40     		ands	r2, r1
 602 00b0 1A60     		str	r2, [r3]
 164:Src/main.c    ****   USART3->CR1 |= USART_CR1_RE;
 603              		.loc 1 164 3 is_stmt 1 view .LVU176
 164:Src/main.c    ****   USART3->CR1 |= USART_CR1_RE;
 604              		.loc 1 164 9 is_stmt 0 view .LVU177
 605 00b2 1A68     		ldr	r2, [r3]
 164:Src/main.c    ****   USART3->CR1 |= USART_CR1_RE;
 606              		.loc 1 164 15 view .LVU178
 607 00b4 0821     		movs	r1, #8
 608 00b6 0A43     		orrs	r2, r1
 609 00b8 1A60     		str	r2, [r3]
 165:Src/main.c    ****   //Enable USART peripheral
 610              		.loc 1 165 3 is_stmt 1 view .LVU179
 165:Src/main.c    ****   //Enable USART peripheral
 611              		.loc 1 165 9 is_stmt 0 view .LVU180
 612 00ba 1A68     		ldr	r2, [r3]
 165:Src/main.c    ****   //Enable USART peripheral
 613              		.loc 1 165 15 view .LVU181
 614 00bc 0439     		subs	r1, r1, #4
 615 00be 0A43     		orrs	r2, r1
 616 00c0 1A60     		str	r2, [r3]
 167:Src/main.c    ****   
 617              		.loc 1 167 3 is_stmt 1 view .LVU182
ARM GAS  /var/folders/kr/g9ry2bg56g773797gdtkvvkw0000gn/T//ccIlPyXT.s 			page 18


 167:Src/main.c    ****   
 618              		.loc 1 167 9 is_stmt 0 view .LVU183
 619 00c2 1A68     		ldr	r2, [r3]
 167:Src/main.c    ****   
 620              		.loc 1 167 15 view .LVU184
 621 00c4 0339     		subs	r1, r1, #3
 622 00c6 0A43     		orrs	r2, r1
 623 00c8 1A60     		str	r2, [r3]
 624 00ca 0FE0     		b	.L21
 625              	.L30:
 178:Src/main.c    ****       {
 626              		.loc 1 178 7 view .LVU185
 627 00cc 002B     		cmp	r3, #0
 628 00ce 0DD0     		beq	.L21
 629 00d0 622B     		cmp	r3, #98
 630 00d2 2CD1     		bne	.L26
 187:Src/main.c    ****           break;
 631              		.loc 1 187 11 is_stmt 1 view .LVU186
 187:Src/main.c    ****           break;
 632              		.loc 1 187 16 is_stmt 0 view .LVU187
 633 00d4 224A     		ldr	r2, .L31+44
 634 00d6 5369     		ldr	r3, [r2, #20]
 187:Src/main.c    ****           break;
 635              		.loc 1 187 22 view .LVU188
 636 00d8 8021     		movs	r1, #128
 637 00da 4B40     		eors	r3, r1
 638 00dc 5361     		str	r3, [r2, #20]
 188:Src/main.c    ****         case 'o':
 639              		.loc 1 188 11 is_stmt 1 view .LVU189
 640 00de 05E0     		b	.L21
 641              	.L22:
 184:Src/main.c    ****           break;
 642              		.loc 1 184 11 view .LVU190
 184:Src/main.c    ****           break;
 643              		.loc 1 184 16 is_stmt 0 view .LVU191
 644 00e0 1F4A     		ldr	r2, .L31+44
 645 00e2 5169     		ldr	r1, [r2, #20]
 184:Src/main.c    ****           break;
 646              		.loc 1 184 22 view .LVU192
 647 00e4 8023     		movs	r3, #128
 648 00e6 9B00     		lsls	r3, r3, #2
 649 00e8 4B40     		eors	r3, r1
 650 00ea 5361     		str	r3, [r2, #20]
 185:Src/main.c    ****         case 'b':
 651              		.loc 1 185 11 is_stmt 1 view .LVU193
 652              	.L21:
 169:Src/main.c    ****   volatile uint8_t action;
 653              		.loc 1 169 3 view .LVU194
 170:Src/main.c    **** 
 654              		.loc 1 170 3 view .LVU195
 173:Src/main.c    ****   { 
 655              		.loc 1 173 3 view .LVU196
 175:Src/main.c    ****     {
 656              		.loc 1 175 5 view .LVU197
 175:Src/main.c    ****     {
 657              		.loc 1 175 15 is_stmt 0 view .LVU198
 658 00ec 184B     		ldr	r3, .L31+28
ARM GAS  /var/folders/kr/g9ry2bg56g773797gdtkvvkw0000gn/T//ccIlPyXT.s 			page 19


 659 00ee DB69     		ldr	r3, [r3, #28]
 175:Src/main.c    ****     {
 660              		.loc 1 175 8 view .LVU199
 661 00f0 9B06     		lsls	r3, r3, #26
 662 00f2 FBD5     		bpl	.L21
 177:Src/main.c    ****       switch (led)
 663              		.loc 1 177 7 is_stmt 1 view .LVU200
 177:Src/main.c    ****       switch (led)
 664              		.loc 1 177 19 is_stmt 0 view .LVU201
 665 00f4 164B     		ldr	r3, .L31+28
 666 00f6 9B8C     		ldrh	r3, [r3, #36]
 177:Src/main.c    ****       switch (led)
 667              		.loc 1 177 11 view .LVU202
 668 00f8 DBB2     		uxtb	r3, r3
 669 00fa 6A46     		mov	r2, sp
 670 00fc D371     		strb	r3, [r2, #7]
 671 00fe 0732     		adds	r2, r2, #7
 178:Src/main.c    ****       {
 672              		.loc 1 178 7 is_stmt 1 view .LVU203
 673 0100 1278     		ldrb	r2, [r2]
 674 0102 D3B2     		uxtb	r3, r2
 675 0104 672A     		cmp	r2, #103
 676 0106 EBD0     		beq	.L22
 677 0108 672B     		cmp	r3, #103
 678 010a DFD9     		bls	.L30
 679 010c 6F2B     		cmp	r3, #111
 680 010e 07D0     		beq	.L27
 681 0110 722B     		cmp	r3, #114
 682 0112 0CD1     		bne	.L26
 181:Src/main.c    ****           break;
 683              		.loc 1 181 11 view .LVU204
 181:Src/main.c    ****           break;
 684              		.loc 1 181 16 is_stmt 0 view .LVU205
 685 0114 124A     		ldr	r2, .L31+44
 686 0116 5369     		ldr	r3, [r2, #20]
 181:Src/main.c    ****           break;
 687              		.loc 1 181 22 view .LVU206
 688 0118 4021     		movs	r1, #64
 689 011a 4B40     		eors	r3, r1
 690 011c 5361     		str	r3, [r2, #20]
 182:Src/main.c    ****         case 'g':
 691              		.loc 1 182 11 is_stmt 1 view .LVU207
 692 011e E5E7     		b	.L21
 693              	.L27:
 190:Src/main.c    ****           break;
 694              		.loc 1 190 11 view .LVU208
 190:Src/main.c    ****           break;
 695              		.loc 1 190 16 is_stmt 0 view .LVU209
 696 0120 0F4A     		ldr	r2, .L31+44
 697 0122 5169     		ldr	r1, [r2, #20]
 190:Src/main.c    ****           break;
 698              		.loc 1 190 22 view .LVU210
 699 0124 8023     		movs	r3, #128
 700 0126 5B00     		lsls	r3, r3, #1
 701 0128 4B40     		eors	r3, r1
 702 012a 5361     		str	r3, [r2, #20]
 191:Src/main.c    ****         case 0:
ARM GAS  /var/folders/kr/g9ry2bg56g773797gdtkvvkw0000gn/T//ccIlPyXT.s 			page 20


 703              		.loc 1 191 11 is_stmt 1 view .LVU211
 704 012c DEE7     		b	.L21
 705              	.L26:
 195:Src/main.c    ****       }
 706              		.loc 1 195 11 view .LVU212
 707 012e FFF7FEFF 		bl	print_error
 708              	.LVL21:
 709 0132 DBE7     		b	.L21
 710              	.L32:
 711              		.align	2
 712              	.L31:
 713 0134 00100240 		.word	1073876992
 714 0138 00040048 		.word	1207960576
 715 013c FFFBFFFF 		.word	-1025
 716 0140 FFFFEFFF 		.word	-1048577
 717 0144 FFF7FFFF 		.word	-2049
 718 0148 FFFFBFFF 		.word	-4194305
 719 014c FF44FFFF 		.word	-47873
 720 0150 00480040 		.word	1073760256
 721 0154 FFFFFFEF 		.word	-268435457
 722 0158 FFEFFFFF 		.word	-4097
 723 015c FFDFFFFF 		.word	-8193
 724 0160 00080048 		.word	1207961600
 725              		.cfi_endproc
 726              	.LFE43:
 728              		.text
 729              	.Letext0:
 730              		.file 2 "Drivers/CMSIS/Device/ST/STM32F0xx/Include/stm32f072xb.h"
 731              		.file 3 "/Applications/ArmGNUToolchain/13.2.Rel1/arm-none-eabi/arm-none-eabi/include/machine/_defa
 732              		.file 4 "/Applications/ArmGNUToolchain/13.2.Rel1/arm-none-eabi/arm-none-eabi/include/sys/_stdint.h
 733              		.file 5 "Drivers/STM32F0xx_HAL_Driver/Inc/stm32f0xx_hal_def.h"
 734              		.file 6 "Drivers/STM32F0xx_HAL_Driver/Inc/stm32f0xx_hal_rcc.h"
 735              		.file 7 "Drivers/STM32F0xx_HAL_Driver/Inc/stm32f0xx_hal_cortex.h"
 736              		.file 8 "Drivers/STM32F0xx_HAL_Driver/Inc/stm32f0xx_hal.h"
ARM GAS  /var/folders/kr/g9ry2bg56g773797gdtkvvkw0000gn/T//ccIlPyXT.s 			page 21

